; Function Attrs: mustprogress nounwind uwtable
define hidden void @_ZN11XForwarding12release_pageEv(ptr noundef nonnull align 8 dereferenceable(134) %0) local_unnamed_addr #1 align 2 {
  %2 = getelementptr inbounds i8, ptr %0, i64 128
  br label %.backedge

.backedge:                                        ; preds = %.backedge.backedge, %1
  %3 = load volatile i32, ptr %2, align 8
  %4 = icmp sgt i32 %3, 0
  br i1 %4, label %5, label %10

5:                                                ; preds = %.backedge
  %6 = add nsw i32 %3, -1
  %7 = tail call noundef i32 asm sideeffect "lock cmpxchgl $1,($3)", "={ax},r,{ax},r,~{cc},~{memory},~{dirflag},~{fpsr},~{flags}"(i32 %6, i32 %3, ptr nonnull %2) #7, !srcloc !7
  %.not11 = icmp eq i32 %7, %3
  br i1 %.not11, label %8, label %.backedge.backedge

.backedge.backedge:                               ; preds = %5, %10
  br label %.backedge, !llvm.loop !13

8:                                                ; preds = %5
  %9 = icmp eq i32 %3, 1
  br i1 %9, label %.sink.split, label %19

10:                                               ; preds = %.backedge
  %11 = add nsw i32 %3, 1
  %12 = tail call noundef i32 asm sideeffect "lock cmpxchgl $1,($3)", "={ax},r,{ax},r,~{cc},~{memory},~{dirflag},~{fpsr},~{flags}"(i32 %11, i32 %3, ptr nonnull %2) #7, !srcloc !7
  %.not = icmp eq i32 %12, %3
  br i1 %.not, label %13, label %.backedge.backedge

13:                                               ; preds = %10
  %or.cond = icmp ugt i32 %3, -3
  br i1 %or.cond, label %.sink.split, label %19

.sink.split:                                      ; preds = %13, %8
  %14 = getelementptr inbounds i8, ptr %0, i64 40
  %15 = tail call i32 @pthread_mutex_lock(ptr noundef nonnull %14) #7
  %16 = getelementptr inbounds i8, ptr %0, i64 80
  %17 = tail call i32 @pthread_cond_broadcast(ptr noundef nonnull %16) #7
  %18 = tail call i32 @pthread_mutex_unlock(ptr noundef nonnull %14) #7
  br label %19

19:                                               ; preds = %.sink.split, %13, %8
  ret void
}